   1              	 .cpu cortex-m0
   2              	 .fpu softvfp
   3              	 .eabi_attribute 20,1
   4              	 .eabi_attribute 21,1
   5              	 .eabi_attribute 23,3
   6              	 .eabi_attribute 24,1
   7              	 .eabi_attribute 25,1
   8              	 .eabi_attribute 26,1
   9              	 .eabi_attribute 30,4
  10              	 .eabi_attribute 34,0
  11              	 .eabi_attribute 18,4
  12              	 .code 16
  13              	 .file "xmc_i2c.c"
  14              	 .section .text.XMC_I2C_CH_SetSlaveAddress,"ax",%progbits
  15              	 .align 1
  16              	 .global XMC_I2C_CH_SetSlaveAddress
  17              	 .code 16
  18              	 .thumb_func
  20              	XMC_I2C_CH_SetSlaveAddress:
  21 0000 F823     	 mov r3,#248
  22 0002 F022     	 mov r2,#240
  23 0004 DB01     	 lsl r3,r3,#7
  24 0006 0B40     	 and r3,r1
  25 0008 D201     	 lsl r2,r2,#7
  26 000a 9342     	 cmp r3,r2
  27 000c 07D1     	 bne .L2
  28 000e FE23     	 mov r3,#254
  29 0010 4A00     	 lsl r2,r1,#1
  30 0012 1B02     	 lsl r3,r3,#8
  31 0014 1A40     	 and r2,r3
  32 0016 CBB2     	 uxtb r3,r1
  33 0018 1A43     	 orr r2,r3
  34 001a 111C     	 mov r1,r2
  35 001c 00E0     	 b .L4
  36              	.L2:
  37 001e 0902     	 lsl r1,r1,#8
  38              	.L4:
  39 0020 C163     	 str r1,[r0,#60]
  40              	 
  41 0022 7047     	 bx lr
  43              	 .section .text.XMC_I2C_CH_GetSlaveAddress,"ax",%progbits
  44              	 .align 1
  45              	 .global XMC_I2C_CH_GetSlaveAddress
  46              	 .code 16
  47              	 .thumb_func
  49              	XMC_I2C_CH_GetSlaveAddress:
  50 0000 C36B     	 ldr r3,[r0,#60]
  51 0002 1804     	 lsl r0,r3,#16
  52 0004 DBB2     	 uxtb r3,r3
  53 0006 002B     	 cmp r3,#0
  54 0008 01D1     	 bne .L7
  55 000a 000E     	 lsr r0,r0,#24
  56 000c 04E0     	 b .L8
  57              	.L7:
  58 000e C022     	 mov r2,#192
  59 0010 400C     	 lsr r0,r0,#17
  60 0012 9200     	 lsl r2,r2,#2
  61 0014 1040     	 and r0,r2
  62 0016 1843     	 orr r0,r3
  63              	.L8:
  64 0018 80B2     	 uxth r0,r0
  65              	 
  66 001a 7047     	 bx lr
  68              	 .section .text.XMC_I2C_CH_SetBaudrate,"ax",%progbits
  69              	 .align 1
  70              	 .global XMC_I2C_CH_SetBaudrate
  71              	 .code 16
  72              	 .thumb_func
  74              	XMC_I2C_CH_SetBaudrate:
  75 0000 08B5     	 push {r3,lr}
  76 0002 0D4B     	 ldr r3,.L14
  77 0004 9942     	 cmp r1,r3
  78 0006 05D8     	 bhi .L10
  79 0008 C26B     	 ldr r2,[r0,#60]
  80 000a 0C4B     	 ldr r3,.L14+4
  81 000c 1340     	 and r3,r2
  82 000e C363     	 str r3,[r0,#60]
  83 0010 0A22     	 mov r2,#10
  84 0012 09E0     	 b .L13
  85              	.L10:
  86 0014 0A4A     	 ldr r2,.L14+8
  87 0016 0123     	 mov r3,#1
  88 0018 9142     	 cmp r1,r2
  89 001a 0AD8     	 bhi .L11
  90 001c 8022     	 mov r2,#128
  91 001e C36B     	 ldr r3,[r0,#60]
  92 0020 9202     	 lsl r2,r2,#10
  93 0022 1343     	 orr r3,r2
  94 0024 1922     	 mov r2,#25
  95 0026 C363     	 str r3,[r0,#60]
  96              	.L13:
  97 0028 FFF7FEFF 	 bl XMC_USIC_CH_SetBaudrate
  98 002c 431E     	 sub r3,r0,#1
  99 002e 9841     	 sbc r0,r0,r3
 100 0030 C3B2     	 uxtb r3,r0
 101              	.L11:
 102 0032 181C     	 mov r0,r3
 103              	 
 104 0034 08BD     	 pop {r3,pc}
 105              	.L15:
 106 0036 C046     	 .align 2
 107              	.L14:
 108 0038 A0860100 	 .word 100000
 109 003c FFFFFDFF 	 .word -131073
 110 0040 801A0600 	 .word 400000
 112              	 .section .text.XMC_I2C_CH_SetBaudrateEx,"ax",%progbits
 113              	 .align 1
 114              	 .global XMC_I2C_CH_SetBaudrateEx
 115              	 .code 16
 116              	 .thumb_func
 118              	XMC_I2C_CH_SetBaudrateEx:
 119 0000 031C     	 mov r3,r0
 120 0002 1148     	 ldr r0,.L24
 121 0004 10B5     	 push {r4,lr}
 122 0006 8142     	 cmp r1,r0
 123 0008 0AD8     	 bhi .L17
 124 000a DC6B     	 ldr r4,[r3,#60]
 125 000c 0F48     	 ldr r0,.L24+4
 126 000e 2040     	 and r0,r4
 127 0010 D863     	 str r0,[r3,#60]
 128 0012 181C     	 mov r0,r3
 129 0014 002A     	 cmp r2,#0
 130 0016 01D0     	 beq .L18
 131 0018 0A22     	 mov r2,#10
 132 001a 0EE0     	 b .L22
 133              	.L18:
 134 001c 0A22     	 mov r2,#10
 135 001e 10E0     	 b .L23
 136              	.L17:
 137 0020 0B4C     	 ldr r4,.L24+8
 138 0022 0120     	 mov r0,#1
 139 0024 A142     	 cmp r1,r4
 140 0026 0ED8     	 bhi .L19
 141 0028 8024     	 mov r4,#128
 142 002a D86B     	 ldr r0,[r3,#60]
 143 002c A402     	 lsl r4,r4,#10
 144 002e 2043     	 orr r0,r4
 145 0030 D863     	 str r0,[r3,#60]
 146 0032 181C     	 mov r0,r3
 147 0034 002A     	 cmp r2,#0
 148 0036 03D0     	 beq .L20
 149 0038 1922     	 mov r2,#25
 150              	.L22:
 151 003a FFF7FEFF 	 bl XMC_USIC_CH_SetBaudrateEx
 152 003e 02E0     	 b .L19
 153              	.L20:
 154 0040 1922     	 mov r2,#25
 155              	.L23:
 156 0042 FFF7FEFF 	 bl XMC_USIC_CH_SetBaudrate
 157              	.L19:
 158              	 
 159 0046 10BD     	 pop {r4,pc}
 160              	.L25:
 161              	 .align 2
 162              	.L24:
 163 0048 A0860100 	 .word 100000
 164 004c FFFFFDFF 	 .word -131073
 165 0050 801A0600 	 .word 400000
 167              	 .section .text.XMC_I2C_CH_Init,"ax",%progbits
 168              	 .align 1
 169              	 .global XMC_I2C_CH_Init
 170              	 .code 16
 171              	 .thumb_func
 173              	XMC_I2C_CH_Init:
 174 0000 38B5     	 push {r3,r4,r5,lr}
 175 0002 041C     	 mov r4,r0
 176 0004 0D1C     	 mov r5,r1
 177 0006 FFF7FEFF 	 bl XMC_USIC_CH_Enable
 178 000a 0A4B     	 ldr r3,.L27
 179 000c 201C     	 mov r0,r4
 180 000e 6363     	 str r3,[r4,#52]
 181 0010 E988     	 ldrh r1,[r5,#6]
 182 0012 FFF7FEFF 	 bl XMC_I2C_CH_SetSlaveAddress
 183 0016 2A79     	 ldrb r2,[r5,#4]
 184 0018 2968     	 ldr r1,[r5]
 185 001a 201C     	 mov r0,r4
 186 001c FFF7FEFF 	 bl XMC_I2C_CH_SetBaudrateEx
 187 0020 A023     	 mov r3,#160
 188 0022 DB00     	 lsl r3,r3,#3
 189 0024 A363     	 str r3,[r4,#56]
 190 0026 0123     	 mov r3,#1
 191 0028 5B42     	 neg r3,r3
 192 002a E364     	 str r3,[r4,#76]
 193 002c 0023     	 mov r3,#0
 194              	 
 195 002e 2364     	 str r3,[r4,#64]
 196 0030 38BD     	 pop {r3,r4,r5,pc}
 197              	.L28:
 198 0032 C046     	 .align 2
 199              	.L27:
 200 0034 03033F07 	 .word 121570051
 202              	 .section .text.XMC_I2C_CH_MasterStart,"ax",%progbits
 203              	 .align 1
 204              	 .global XMC_I2C_CH_MasterStart
 205              	 .code 16
 206              	 .thumb_func
 208              	XMC_I2C_CH_MasterStart:
 209 0000 012A     	 cmp r2,#1
 210 0002 02D0     	 beq .L30
 211 0004 8023     	 mov r3,#128
 212 0006 DB00     	 lsl r3,r3,#3
 213 0008 00E0     	 b .L36
 214              	.L30:
 215 000a 0D4B     	 ldr r3,.L37
 216              	.L36:
 217 000c 1943     	 orr r1,r3
 218 000e 031C     	 mov r3,r0
 219 0010 FC33     	 add r3,r3,#252
 220 0012 DA68     	 ldr r2,[r3,#12]
 221 0014 E023     	 mov r3,#224
 222 0016 DB04     	 lsl r3,r3,#19
 223 0018 1A42     	 tst r2,r3
 224 001a 0DD1     	 bne .L32
 225              	.L33:
 226 001c 7F22     	 mov r2,#127
 227 001e 836B     	 ldr r3,[r0,#56]
 228 0020 9343     	 bic r3,r2
 229 0022 DBB2     	 uxtb r3,r3
 230 0024 802B     	 cmp r3,#128
 231 0026 F9D0     	 beq .L33
 232 0028 8022     	 mov r2,#128
 233 002a C36C     	 ldr r3,[r0,#76]
 234 002c 9201     	 lsl r2,r2,#6
 235 002e 1343     	 orr r3,r2
 236 0030 C364     	 str r3,[r0,#76]
 237 0032 0430     	 add r0,r0,#4
 238 0034 C167     	 str r1,[r0,#124]
 239 0036 02E0     	 b .L29
 240              	.L32:
 241 0038 C023     	 mov r3,#192
 242 003a 5B00     	 lsl r3,r3,#1
 243 003c C150     	 str r1,[r0,r3]
 244              	.L29:
 245              	 
 246 003e 7047     	 bx lr
 247              	.L38:
 248              	 .align 2
 249              	.L37:
 250 0040 01040000 	 .word 1025
 252              	 .section .text.XMC_I2C_CH_MasterRepeatedStart,"ax",%progbits
 253              	 .align 1
 254              	 .global XMC_I2C_CH_MasterRepeatedStart
 255              	 .code 16
 256              	 .thumb_func
 258              	XMC_I2C_CH_MasterRepeatedStart:
 259 0000 012A     	 cmp r2,#1
 260 0002 02D0     	 beq .L40
 261 0004 A023     	 mov r3,#160
 262 0006 DB00     	 lsl r3,r3,#3
 263 0008 00E0     	 b .L46
 264              	.L40:
 265 000a 0D4B     	 ldr r3,.L47
 266              	.L46:
 267 000c 1943     	 orr r1,r3
 268 000e 031C     	 mov r3,r0
 269 0010 FC33     	 add r3,r3,#252
 270 0012 DA68     	 ldr r2,[r3,#12]
 271 0014 E023     	 mov r3,#224
 272 0016 DB04     	 lsl r3,r3,#19
 273 0018 1A42     	 tst r2,r3
 274 001a 0DD1     	 bne .L42
 275              	.L43:
 276 001c 7F22     	 mov r2,#127
 277 001e 836B     	 ldr r3,[r0,#56]
 278 0020 9343     	 bic r3,r2
 279 0022 DBB2     	 uxtb r3,r3
 280 0024 802B     	 cmp r3,#128
 281 0026 F9D0     	 beq .L43
 282 0028 8022     	 mov r2,#128
 283 002a C36C     	 ldr r3,[r0,#76]
 284 002c 9201     	 lsl r2,r2,#6
 285 002e 1343     	 orr r3,r2
 286 0030 C364     	 str r3,[r0,#76]
 287 0032 0430     	 add r0,r0,#4
 288 0034 C167     	 str r1,[r0,#124]
 289 0036 02E0     	 b .L39
 290              	.L42:
 291 0038 C023     	 mov r3,#192
 292 003a 5B00     	 lsl r3,r3,#1
 293 003c C150     	 str r1,[r0,r3]
 294              	.L39:
 295              	 
 296 003e 7047     	 bx lr
 297              	.L48:
 298              	 .align 2
 299              	.L47:
 300 0040 01050000 	 .word 1281
 302              	 .section .text.XMC_I2C_CH_MasterStop,"ax",%progbits
 303              	 .align 1
 304              	 .global XMC_I2C_CH_MasterStop
 305              	 .code 16
 306              	 .thumb_func
 308              	XMC_I2C_CH_MasterStop:
 309 0000 031C     	 mov r3,r0
 310 0002 FC33     	 add r3,r3,#252
 311 0004 DA68     	 ldr r2,[r3,#12]
 312 0006 E023     	 mov r3,#224
 313 0008 DB04     	 lsl r3,r3,#19
 314 000a 1A42     	 tst r2,r3
 315 000c 0FD1     	 bne .L50
 316              	.L51:
 317 000e 7F22     	 mov r2,#127
 318 0010 836B     	 ldr r3,[r0,#56]
 319 0012 9343     	 bic r3,r2
 320 0014 DBB2     	 uxtb r3,r3
 321 0016 802B     	 cmp r3,#128
 322 0018 F9D0     	 beq .L51
 323 001a 8022     	 mov r2,#128
 324 001c C36C     	 ldr r3,[r0,#76]
 325 001e 9201     	 lsl r2,r2,#6
 326 0020 1343     	 orr r3,r2
 327 0022 C364     	 str r3,[r0,#76]
 328 0024 C023     	 mov r3,#192
 329 0026 0430     	 add r0,r0,#4
 330 0028 DB00     	 lsl r3,r3,#3
 331 002a C367     	 str r3,[r0,#124]
 332 002c 04E0     	 b .L49
 333              	.L50:
 334 002e C022     	 mov r2,#192
 335 0030 C023     	 mov r3,#192
 336 0032 D200     	 lsl r2,r2,#3
 337 0034 5B00     	 lsl r3,r3,#1
 338 0036 C250     	 str r2,[r0,r3]
 339              	.L49:
 340              	 
 341 0038 7047     	 bx lr
 343              	 .section .text.XMC_I2C_CH_MasterTransmit,"ax",%progbits
 344              	 .align 1
 345              	 .global XMC_I2C_CH_MasterTransmit
 346              	 .code 16
 347              	 .thumb_func
 349              	XMC_I2C_CH_MasterTransmit:
 350 0000 031C     	 mov r3,r0
 351 0002 FC33     	 add r3,r3,#252
 352 0004 DA68     	 ldr r2,[r3,#12]
 353 0006 E023     	 mov r3,#224
 354 0008 DB04     	 lsl r3,r3,#19
 355 000a 1A42     	 tst r2,r3
 356 000c 0DD1     	 bne .L55
 357              	.L56:
 358 000e 7F22     	 mov r2,#127
 359 0010 836B     	 ldr r3,[r0,#56]
 360 0012 9343     	 bic r3,r2
 361 0014 DBB2     	 uxtb r3,r3
 362 0016 802B     	 cmp r3,#128
 363 0018 F9D0     	 beq .L56
 364 001a 8022     	 mov r2,#128
 365 001c C36C     	 ldr r3,[r0,#76]
 366 001e 9201     	 lsl r2,r2,#6
 367 0020 1343     	 orr r3,r2
 368 0022 C364     	 str r3,[r0,#76]
 369 0024 0430     	 add r0,r0,#4
 370 0026 C167     	 str r1,[r0,#124]
 371 0028 02E0     	 b .L54
 372              	.L55:
 373 002a C023     	 mov r3,#192
 374 002c 5B00     	 lsl r3,r3,#1
 375 002e C150     	 str r1,[r0,r3]
 376              	.L54:
 377              	 
 378 0030 7047     	 bx lr
 380              	 .section .text.XMC_I2C_CH_SlaveTransmit,"ax",%progbits
 381              	 .align 1
 382              	 .global XMC_I2C_CH_SlaveTransmit
 383              	 .code 16
 384              	 .thumb_func
 386              	XMC_I2C_CH_SlaveTransmit:
 387 0000 031C     	 mov r3,r0
 388 0002 FC33     	 add r3,r3,#252
 389 0004 DA68     	 ldr r2,[r3,#12]
 390 0006 E023     	 mov r3,#224
 391 0008 DB04     	 lsl r3,r3,#19
 392 000a 1A42     	 tst r2,r3
 393 000c 10D1     	 bne .L60
 394              	.L61:
 395 000e 7F22     	 mov r2,#127
 396 0010 836B     	 ldr r3,[r0,#56]
 397 0012 9343     	 bic r3,r2
 398 0014 DBB2     	 uxtb r3,r3
 399 0016 802B     	 cmp r3,#128
 400 0018 F9D0     	 beq .L61
 401 001a 8022     	 mov r2,#128
 402 001c C36C     	 ldr r3,[r0,#76]
 403 001e 9201     	 lsl r2,r2,#6
 404 0020 1343     	 orr r3,r2
 405 0022 C364     	 str r3,[r0,#76]
 406 0024 8023     	 mov r3,#128
 407 0026 5B00     	 lsl r3,r3,#1
 408 0028 1943     	 orr r1,r3
 409 002a 0430     	 add r0,r0,#4
 410 002c C167     	 str r1,[r0,#124]
 411 002e 04E0     	 b .L59
 412              	.L60:
 413 0030 8023     	 mov r3,#128
 414 0032 5B00     	 lsl r3,r3,#1
 415 0034 1943     	 orr r1,r3
 416 0036 8033     	 add r3,r3,#128
 417 0038 C150     	 str r1,[r0,r3]
 418              	.L59:
 419              	 
 420 003a 7047     	 bx lr
 422              	 .section .text.XMC_I2C_CH_MasterReceiveAck,"ax",%progbits
 423              	 .align 1
 424              	 .global XMC_I2C_CH_MasterReceiveAck
 425              	 .code 16
 426              	 .thumb_func
 428              	XMC_I2C_CH_MasterReceiveAck:
 429 0000 031C     	 mov r3,r0
 430 0002 FC33     	 add r3,r3,#252
 431 0004 DA68     	 ldr r2,[r3,#12]
 432 0006 E023     	 mov r3,#224
 433 0008 DB04     	 lsl r3,r3,#19
 434 000a 1A42     	 tst r2,r3
 435 000c 0FD1     	 bne .L65
 436              	.L66:
 437 000e 7F22     	 mov r2,#127
 438 0010 836B     	 ldr r3,[r0,#56]
 439 0012 9343     	 bic r3,r2
 440 0014 DBB2     	 uxtb r3,r3
 441 0016 802B     	 cmp r3,#128
 442 0018 F9D0     	 beq .L66
 443 001a 8022     	 mov r2,#128
 444 001c C36C     	 ldr r3,[r0,#76]
 445 001e 9201     	 lsl r2,r2,#6
 446 0020 1343     	 orr r3,r2
 447 0022 C364     	 str r3,[r0,#76]
 448 0024 8023     	 mov r3,#128
 449 0026 0430     	 add r0,r0,#4
 450 0028 9B00     	 lsl r3,r3,#2
 451 002a C367     	 str r3,[r0,#124]
 452 002c 04E0     	 b .L64
 453              	.L65:
 454 002e 8022     	 mov r2,#128
 455 0030 C023     	 mov r3,#192
 456 0032 9200     	 lsl r2,r2,#2
 457 0034 5B00     	 lsl r3,r3,#1
 458 0036 C250     	 str r2,[r0,r3]
 459              	.L64:
 460              	 
 461 0038 7047     	 bx lr
 463              	 .section .text.XMC_I2C_CH_MasterReceiveNack,"ax",%progbits
 464              	 .align 1
 465              	 .global XMC_I2C_CH_MasterReceiveNack
 466              	 .code 16
 467              	 .thumb_func
 469              	XMC_I2C_CH_MasterReceiveNack:
 470 0000 031C     	 mov r3,r0
 471 0002 FC33     	 add r3,r3,#252
 472 0004 DA68     	 ldr r2,[r3,#12]
 473 0006 E023     	 mov r3,#224
 474 0008 DB04     	 lsl r3,r3,#19
 475 000a 1A42     	 tst r2,r3
 476 000c 0FD1     	 bne .L70
 477              	.L71:
 478 000e 7F22     	 mov r2,#127
 479 0010 836B     	 ldr r3,[r0,#56]
 480 0012 9343     	 bic r3,r2
 481 0014 DBB2     	 uxtb r3,r3
 482 0016 802B     	 cmp r3,#128
 483 0018 F9D0     	 beq .L71
 484 001a 8022     	 mov r2,#128
 485 001c C36C     	 ldr r3,[r0,#76]
 486 001e 9201     	 lsl r2,r2,#6
 487 0020 1343     	 orr r3,r2
 488 0022 C364     	 str r3,[r0,#76]
 489 0024 C023     	 mov r3,#192
 490 0026 0430     	 add r0,r0,#4
 491 0028 9B00     	 lsl r3,r3,#2
 492 002a C367     	 str r3,[r0,#124]
 493 002c 04E0     	 b .L69
 494              	.L70:
 495 002e C022     	 mov r2,#192
 496 0030 C023     	 mov r3,#192
 497 0032 9200     	 lsl r2,r2,#2
 498 0034 5B00     	 lsl r3,r3,#1
 499 0036 C250     	 str r2,[r0,r3]
 500              	.L69:
 501              	 
 502 0038 7047     	 bx lr
 504              	 .section .text.XMC_I2C_CH_GetReceivedData,"ax",%progbits
 505              	 .align 1
 506              	 .global XMC_I2C_CH_GetReceivedData
 507              	 .code 16
 508              	 .thumb_func
 510              	XMC_I2C_CH_GetReceivedData:
 511 0000 031C     	 mov r3,r0
 512 0002 E022     	 mov r2,#224
 513 0004 FC33     	 add r3,r3,#252
 514 0006 1969     	 ldr r1,[r3,#16]
 515 0008 D204     	 lsl r2,r2,#19
 516 000a 1142     	 tst r1,r2
 517 000c 01D1     	 bne .L75
 518 000e 406D     	 ldr r0,[r0,#84]
 519 0010 00E0     	 b .L77
 520              	.L75:
 521 0012 186A     	 ldr r0,[r3,#32]
 522              	.L77:
 523 0014 C0B2     	 uxtb r0,r0
 524              	 
 525 0016 7047     	 bx lr
 527              	 .section .text.XMC_I2C_CH_Stop,"ax",%progbits
 528              	 .align 1
 529              	 .global XMC_I2C_CH_Stop
 530              	 .code 16
 531              	 .thumb_func
 533              	XMC_I2C_CH_Stop:
 534 0000 826B     	 ldr r2,[r0,#56]
 535 0002 031C     	 mov r3,r0
 536 0004 0220     	 mov r0,#2
 537 0006 1206     	 lsl r2,r2,#24
 538 0008 04D4     	 bmi .L79
 539 000a 0F21     	 mov r1,#15
 540 000c 0020     	 mov r0,#0
 541 000e 1A6C     	 ldr r2,[r3,#64]
 542 0010 8A43     	 bic r2,r1
 543 0012 1A64     	 str r2,[r3,#64]
 544              	.L79:
 545              	 
 546 0014 7047     	 bx lr
 548              	 .section .text.XMC_I2C_CH_EnableEvent,"ax",%progbits
 549              	 .align 1
 550              	 .global XMC_I2C_CH_EnableEvent
 551              	 .code 16
 552              	 .thumb_func
 554              	XMC_I2C_CH_EnableEvent:
 555 0000 FE23     	 mov r3,#254
 556 0002 026C     	 ldr r2,[r0,#64]
 557 0004 5B02     	 lsl r3,r3,#9
 558 0006 0B40     	 and r3,r1
 559 0008 1343     	 orr r3,r2
 560 000a 0364     	 str r3,[r0,#64]
 561 000c 024A     	 ldr r2,.L82
 562 000e C36B     	 ldr r3,[r0,#60]
 563 0010 1140     	 and r1,r2
 564 0012 1943     	 orr r1,r3
 565 0014 C163     	 str r1,[r0,#60]
 566              	 
 567 0016 7047     	 bx lr
 568              	.L83:
 569              	 .align 2
 570              	.L82:
 571 0018 0000FC41 	 .word 1107034112
 573              	 .section .text.XMC_I2C_CH_DisableEvent,"ax",%progbits
 574              	 .align 1
 575              	 .global XMC_I2C_CH_DisableEvent
 576              	 .code 16
 577              	 .thumb_func
 579              	XMC_I2C_CH_DisableEvent:
 580 0000 FE22     	 mov r2,#254
 581 0002 036C     	 ldr r3,[r0,#64]
 582 0004 5202     	 lsl r2,r2,#9
 583 0006 0A40     	 and r2,r1
 584 0008 9343     	 bic r3,r2
 585 000a 0364     	 str r3,[r0,#64]
 586 000c 024A     	 ldr r2,.L85
 587 000e C36B     	 ldr r3,[r0,#60]
 588 0010 1140     	 and r1,r2
 589 0012 8B43     	 bic r3,r1
 590 0014 C363     	 str r3,[r0,#60]
 591              	 
 592 0016 7047     	 bx lr
 593              	.L86:
 594              	 .align 2
 595              	.L85:
 596 0018 0000FC41 	 .word 1107034112
 598              	 .ident "GCC: (GNU Tools for ARM Embedded Processors) 4.9.3 20141119 (release) [ARM/embedded-4_9-branch revision 218278]"
DEFINED SYMBOLS
                            *ABS*:00000000 xmc_i2c.c
    {standard input}:15     .text.XMC_I2C_CH_SetSlaveAddress:00000000 $t
    {standard input}:20     .text.XMC_I2C_CH_SetSlaveAddress:00000000 XMC_I2C_CH_SetSlaveAddress
    {standard input}:44     .text.XMC_I2C_CH_GetSlaveAddress:00000000 $t
    {standard input}:49     .text.XMC_I2C_CH_GetSlaveAddress:00000000 XMC_I2C_CH_GetSlaveAddress
    {standard input}:69     .text.XMC_I2C_CH_SetBaudrate:00000000 $t
    {standard input}:74     .text.XMC_I2C_CH_SetBaudrate:00000000 XMC_I2C_CH_SetBaudrate
    {standard input}:108    .text.XMC_I2C_CH_SetBaudrate:00000038 $d
    {standard input}:113    .text.XMC_I2C_CH_SetBaudrateEx:00000000 $t
    {standard input}:118    .text.XMC_I2C_CH_SetBaudrateEx:00000000 XMC_I2C_CH_SetBaudrateEx
    {standard input}:163    .text.XMC_I2C_CH_SetBaudrateEx:00000048 $d
    {standard input}:168    .text.XMC_I2C_CH_Init:00000000 $t
    {standard input}:173    .text.XMC_I2C_CH_Init:00000000 XMC_I2C_CH_Init
    {standard input}:200    .text.XMC_I2C_CH_Init:00000034 $d
    {standard input}:203    .text.XMC_I2C_CH_MasterStart:00000000 $t
    {standard input}:208    .text.XMC_I2C_CH_MasterStart:00000000 XMC_I2C_CH_MasterStart
    {standard input}:250    .text.XMC_I2C_CH_MasterStart:00000040 $d
    {standard input}:253    .text.XMC_I2C_CH_MasterRepeatedStart:00000000 $t
    {standard input}:258    .text.XMC_I2C_CH_MasterRepeatedStart:00000000 XMC_I2C_CH_MasterRepeatedStart
    {standard input}:300    .text.XMC_I2C_CH_MasterRepeatedStart:00000040 $d
    {standard input}:303    .text.XMC_I2C_CH_MasterStop:00000000 $t
    {standard input}:308    .text.XMC_I2C_CH_MasterStop:00000000 XMC_I2C_CH_MasterStop
    {standard input}:344    .text.XMC_I2C_CH_MasterTransmit:00000000 $t
    {standard input}:349    .text.XMC_I2C_CH_MasterTransmit:00000000 XMC_I2C_CH_MasterTransmit
    {standard input}:381    .text.XMC_I2C_CH_SlaveTransmit:00000000 $t
    {standard input}:386    .text.XMC_I2C_CH_SlaveTransmit:00000000 XMC_I2C_CH_SlaveTransmit
    {standard input}:423    .text.XMC_I2C_CH_MasterReceiveAck:00000000 $t
    {standard input}:428    .text.XMC_I2C_CH_MasterReceiveAck:00000000 XMC_I2C_CH_MasterReceiveAck
    {standard input}:464    .text.XMC_I2C_CH_MasterReceiveNack:00000000 $t
    {standard input}:469    .text.XMC_I2C_CH_MasterReceiveNack:00000000 XMC_I2C_CH_MasterReceiveNack
    {standard input}:505    .text.XMC_I2C_CH_GetReceivedData:00000000 $t
    {standard input}:510    .text.XMC_I2C_CH_GetReceivedData:00000000 XMC_I2C_CH_GetReceivedData
    {standard input}:528    .text.XMC_I2C_CH_Stop:00000000 $t
    {standard input}:533    .text.XMC_I2C_CH_Stop:00000000 XMC_I2C_CH_Stop
    {standard input}:549    .text.XMC_I2C_CH_EnableEvent:00000000 $t
    {standard input}:554    .text.XMC_I2C_CH_EnableEvent:00000000 XMC_I2C_CH_EnableEvent
    {standard input}:571    .text.XMC_I2C_CH_EnableEvent:00000018 $d
    {standard input}:574    .text.XMC_I2C_CH_DisableEvent:00000000 $t
    {standard input}:579    .text.XMC_I2C_CH_DisableEvent:00000000 XMC_I2C_CH_DisableEvent
    {standard input}:596    .text.XMC_I2C_CH_DisableEvent:00000018 $d

UNDEFINED SYMBOLS
XMC_USIC_CH_SetBaudrate
XMC_USIC_CH_SetBaudrateEx
XMC_USIC_CH_Enable
